; Function Attrs: mustprogress uwtable
define dso_local noundef zeroext i1 @_ZN9cmDepends5CheckERKNSt7__cxx1112basic_stringIcSt11char_traitsIcESaIcEEES7_RSt3mapIS5_St6vectorIS5_SaIS5_EESt4lessIS5_ESaISt4pairIS6_SB_EEE(ptr noundef nonnull align 8 dereferenceable(120) %0, ptr noundef nonnull align 8 dereferenceable(32) %1, ptr noundef nonnull align 8 dereferenceable(32) %2, ptr noundef nonnull align 8 dereferenceable(48) %3) local_unnamed_addr #5 align 2 personality ptr @__gxx_personality_v0 {
  %5 = alloca %"class.std::basic_ifstream", align 8
  %6 = tail call noundef ptr @_ZNKSt7__cxx1112basic_stringIcSt11char_traitsIcESaIcEE5c_strEv(ptr noundef nonnull align 8 dereferenceable(32) %2) #16
  call void @_ZNSt14basic_ifstreamIcSt11char_traitsIcEEC1EPKcSt13_Ios_Openmode(ptr noundef nonnull align 8 dereferenceable(256) %5, ptr noundef %6, i32 noundef 8)
  %7 = load ptr, ptr %5, align 8
  %8 = getelementptr i8, ptr %7, i64 -24
  %9 = load i64, ptr %8, align 8
  %10 = getelementptr inbounds i8, ptr %5, i64 %9
  %11 = invoke noundef zeroext i1 @_ZNKSt9basic_iosIcSt11char_traitsIcEEcvbEv(ptr noundef nonnull align 8 dereferenceable(264) %10)
          to label %12 unwind label %26

12:                                               ; preds = %4
  br i1 %11, label %13, label %19

13:                                               ; preds = %12
  %14 = load ptr, ptr %0, align 8
  %15 = getelementptr inbounds i8, ptr %14, i64 24
  %16 = load ptr, ptr %15, align 8
  %17 = invoke noundef zeroext i1 %16(ptr noundef nonnull align 8 dereferenceable(120) %0, ptr noundef nonnull align 8 dereferenceable(16) %5, ptr noundef nonnull align 8 dereferenceable(32) %2, ptr noundef nonnull align 8 dereferenceable(48) %3)
          to label %18 unwind label %26

18:                                               ; preds = %13
  br i1 %17, label %28, label %19

19:                                               ; preds = %18, %12
  invoke void @_ZNK9cmDepends5ClearERKNSt7__cxx1112basic_stringIcSt11char_traitsIcESaIcEEE(ptr noundef nonnull align 8 dereferenceable(120) %0, ptr noundef nonnull align 8 dereferenceable(32) %1)
          to label %20 unwind label %26

20:                                               ; preds = %19
  %21 = invoke i64 @_ZN5cmsys11SystemTools10RemoveFileERKNSt7__cxx1112basic_stringIcSt11char_traitsIcESaIcEEE(ptr noundef nonnull align 8 dereferenceable(32) %2)
          to label %22 unwind label %26

22:                                               ; preds = %20
  %23 = getelementptr inbounds i8, ptr %0, i64 24
  %24 = load ptr, ptr %23, align 8
  %25 = invoke noundef zeroext i1 @_ZN15cmFileTimeCache6RemoveERKNSt7__cxx1112basic_stringIcSt11char_traitsIcESaIcEEE(ptr noundef nonnull align 8 dereferenceable(56) %24, ptr noundef nonnull align 8 dereferenceable(32) %2)
          to label %28 unwind label %26

26:                                               ; preds = %22, %20, %19, %13, %4
  %27 = landingpad { ptr, i32 }
          cleanup
  call void @_ZNSt14basic_ifstreamIcSt11char_traitsIcEED1Ev(ptr noundef nonnull align 8 dereferenceable(256) %5) #16
  resume { ptr, i32 } %27

28:                                               ; preds = %22, %18
  %.0 = phi i1 [ true, %18 ], [ false, %22 ]
  call void @_ZNSt14basic_ifstreamIcSt11char_traitsIcEED1Ev(ptr noundef nonnull align 8 dereferenceable(256) %5) #16
  ret i1 %.0
}